target datalayout = "e-m:e-p270:32:32-p271:32:32-p272:64:64-i64:64-i128:128-f80:128-n8:16:32:64-S128"
target triple = "x86_64-pc-linux-gnu"

%struct.ArgoASFFileHeader = type { i32, i16, i16, i32, i32, [9 x i8] }

; Function Attrs: nounwind uwtable
define void @ff_argo_asf_parse_file_header(ptr noundef %0, ptr noundef %1) #0 {
  %3 = alloca ptr, align 8
  %4 = alloca ptr, align 8
  store ptr %0, ptr %3, align 8, !tbaa !4
  store ptr %1, ptr %4, align 8, !tbaa !9
  %5 = load ptr, ptr %4, align 8, !tbaa !9
  %6 = getelementptr inbounds i8, ptr %5, i64 0
  %7 = load i32, ptr %6, align 1, !tbaa !11
  %8 = load ptr, ptr %3, align 8, !tbaa !4
  %9 = getelementptr inbounds nuw %struct.ArgoASFFileHeader, ptr %8, i32 0, i32 0
  store i32 %7, ptr %9, align 4, !tbaa !12
  %10 = load ptr, ptr %4, align 8, !tbaa !9
  %11 = getelementptr inbounds i8, ptr %10, i64 4
  %12 = load i16, ptr %11, align 1, !tbaa !11
  %13 = load ptr, ptr %3, align 8, !tbaa !4
  %14 = getelementptr inbounds nuw %struct.ArgoASFFileHeader, ptr %13, i32 0, i32 1
  store i16 %12, ptr %14, align 4, !tbaa !16
  %15 = load ptr, ptr %4, align 8, !tbaa !9
  %16 = getelementptr inbounds i8, ptr %15, i64 6
  %17 = load i16, ptr %16, align 1, !tbaa !11
  %18 = load ptr, ptr %3, align 8, !tbaa !4
  %19 = getelementptr inbounds nuw %struct.ArgoASFFileHeader, ptr %18, i32 0, i32 2
  store i16 %17, ptr %19, align 2, !tbaa !17
  %20 = load ptr, ptr %4, align 8, !tbaa !9
  %21 = getelementptr inbounds i8, ptr %20, i64 8
  %22 = load i32, ptr %21, align 1, !tbaa !11
  %23 = load ptr, ptr %3, align 8, !tbaa !4
  %24 = getelementptr inbounds nuw %struct.ArgoASFFileHeader, ptr %23, i32 0, i32 3
  store i32 %22, ptr %24, align 4, !tbaa !18
  %25 = load ptr, ptr %4, align 8, !tbaa !9
  %26 = getelementptr inbounds i8, ptr %25, i64 12
  %27 = load i32, ptr %26, align 1, !tbaa !11
  %28 = load ptr, ptr %3, align 8, !tbaa !4
  %29 = getelementptr inbounds nuw %struct.ArgoASFFileHeader, ptr %28, i32 0, i32 4
  store i32 %27, ptr %29, align 4, !tbaa !19
  %30 = load ptr, ptr %3, align 8, !tbaa !4
  %31 = getelementptr inbounds nuw %struct.ArgoASFFileHeader, ptr %30, i32 0, i32 5
  %32 = getelementptr inbounds [9 x i8], ptr %31, i64 0, i64 0
  %33 = load ptr, ptr %4, align 8, !tbaa !9
  %34 = getelementptr inbounds i8, ptr %33, i64 16
  call void @llvm.memcpy.p0.p0.i64(ptr align 4 %32, ptr align 1 %34, i64 8, i1 false)
  %35 = load ptr, ptr %3, align 8, !tbaa !4
  %36 = getelementptr inbounds nuw %struct.ArgoASFFileHeader, ptr %35, i32 0, i32 5
  %37 = getelementptr inbounds [9 x i8], ptr %36, i64 0, i64 8
  store i8 0, ptr %37, align 4, !tbaa !11
  ret void
}