; Function Attrs: mustprogress nofree norecurse nosync nounwind willreturn memory(argmem: readwrite) uwtable
define void @ff_argo_asf_parse_file_header(ptr noundef writeonly captures(none) initializes((0, 25)) %0, ptr noundef readonly captures(none) %1) local_unnamed_addr #0 {
  %3 = load i32, ptr %1, align 1, !tbaa !4
  store i32 %3, ptr %0, align 4, !tbaa !7
  %4 = getelementptr inbounds nuw i8, ptr %1, i64 4
  %5 = load i16, ptr %4, align 1, !tbaa !4
  %6 = getelementptr inbounds nuw i8, ptr %0, i64 4
  store i16 %5, ptr %6, align 4, !tbaa !11
  %7 = getelementptr inbounds nuw i8, ptr %1, i64 6
  %8 = load i16, ptr %7, align 1, !tbaa !4
  %9 = getelementptr inbounds nuw i8, ptr %0, i64 6
  store i16 %8, ptr %9, align 2, !tbaa !12
  %10 = getelementptr inbounds nuw i8, ptr %1, i64 8
  %11 = load i32, ptr %10, align 1, !tbaa !4
  %12 = getelementptr inbounds nuw i8, ptr %0, i64 8
  store i32 %11, ptr %12, align 4, !tbaa !13
  %13 = getelementptr inbounds nuw i8, ptr %1, i64 12
  %14 = load i32, ptr %13, align 1, !tbaa !4
  %15 = getelementptr inbounds nuw i8, ptr %0, i64 12
  store i32 %14, ptr %15, align 4, !tbaa !14
  %16 = getelementptr inbounds nuw i8, ptr %0, i64 16
  %17 = getelementptr inbounds nuw i8, ptr %1, i64 16
  %18 = load i64, ptr %17, align 1
  store i64 %18, ptr %16, align 4
  %19 = getelementptr inbounds nuw i8, ptr %0, i64 24
  store i8 0, ptr %19, align 4, !tbaa !4
  ret void
}